; Function Attrs: mustprogress nounwind uwtable
define hidden void @_ZN8ciMethod15liveness_at_bciEi(ptr dead_on_unwind noalias writable sret(%class.MethodLivenessResult) align 8 %0, ptr noundef nonnull align 8 dereferenceable(160) %1, i32 noundef %2) local_unnamed_addr #0 align 2 {
  %4 = tail call align 8 ptr @llvm.threadlocal.address.p0(ptr align 8 @_ZN6Thread12_thr_currentE)
  %5 = load ptr, ptr %4, align 8
  %6 = getelementptr inbounds i8, ptr %5, i64 1808
  %7 = load ptr, ptr %6, align 8
  %8 = getelementptr inbounds i8, ptr %7, i64 161
  %9 = load i8, ptr %8, align 1
  %10 = trunc i8 %9 to i1
  %11 = getelementptr inbounds i8, ptr %7, i64 163
  %12 = load i8, ptr %11, align 1
  %13 = trunc i8 %12 to i1
  %14 = select i1 %10, i1 true, i1 %13
  br i1 %14, label %15, label %22

15:                                               ; preds = %3
  %16 = getelementptr inbounds i8, ptr %1, i64 80
  %17 = load i32, ptr %16, align 8
  %18 = sext i32 %17 to i64
  tail call void @_ZN14ResourceBitMapC2Emb(ptr noundef nonnull align 8 dereferenceable(16) %0, i64 noundef %18, i1 noundef zeroext true) #14
  %19 = getelementptr inbounds i8, ptr %0, i64 16
  store i8 0, ptr %19, align 8
  %20 = load i32, ptr %16, align 8
  %21 = sext i32 %20 to i64
  tail call void @_ZN6BitMap9set_rangeEmm(ptr noundef nonnull align 8 dereferenceable(16) %0, i64 noundef 0, i64 noundef %21) #14
  store i8 1, ptr %19, align 8
  br label %31

22:                                               ; preds = %3
  %23 = getelementptr inbounds i8, ptr %1, i64 136
  %24 = load ptr, ptr %23, align 8, !noalias !13
  %25 = icmp eq ptr %24, null
  br i1 %25, label %26, label %_ZN8ciMethod19raw_liveness_at_bciEi.exit

26:                                               ; preds = %22
  %27 = load ptr, ptr %7, align 8, !noalias !13
  %28 = tail call noundef ptr @_ZN8ArenaObjnwEmP5Arena(i64 noundef 80, ptr noundef %27) #14, !noalias !13
  %29 = icmp ne ptr %28, null
  tail call void @llvm.assume(i1 %29)
  tail call void @_ZN14MethodLivenessC1EP5ArenaP8ciMethod(ptr noundef nonnull align 8 dereferenceable(80) %28, ptr noundef %27, ptr noundef nonnull %1) #14, !noalias !13
  store ptr %28, ptr %23, align 8, !noalias !13
  tail call void @_ZN14MethodLiveness16compute_livenessEv(ptr noundef nonnull align 8 dereferenceable(80) %28) #14, !noalias !13
  %.pre.i = load ptr, ptr %23, align 8, !noalias !13
  br label %_ZN8ciMethod19raw_liveness_at_bciEi.exit

_ZN8ciMethod19raw_liveness_at_bciEi.exit:         ; preds = %22, %26
  %30 = phi ptr [ %.pre.i, %26 ], [ %24, %22 ]
  tail call void @_ZN14MethodLiveness15get_liveness_atEi(ptr dead_on_unwind writable sret(%class.MethodLivenessResult) align 8 %0, ptr noundef nonnull align 8 dereferenceable(80) %30, i32 noundef %2) #14
  br label %31

31:                                               ; preds = %15, %_ZN8ciMethod19raw_liveness_at_bciEi.exit
  ret void
}